target datalayout = "e-m:e-p270:32:32-p271:32:32-p272:64:64-i64:64-i128:128-f80:128-n8:16:32:64-S128"
target triple = "x86_64-pc-linux-gnu"

%struct.quic_stream_map_st = type { ptr, %struct.quic_stream_list_node_st, %struct.quic_stream_list_node_st, %struct.quic_stream_list_node_st, i64, i64, i64, i64, i64, ptr, ptr, ptr, ptr, ptr, i32 }
%struct.quic_stream_list_node_st = type { ptr, ptr }
%struct.quic_stream_st = type { %struct.quic_stream_list_node_st, %struct.quic_stream_list_node_st, %struct.quic_stream_list_node_st, ptr, i64, i64, i64, i64, i64, i64, i64, ptr, ptr, %struct.quic_txfc_st, %struct.quic_rxfc_st, i64 }
%struct.quic_txfc_st = type { ptr, i64, i64, i8 }
%struct.quic_rxfc_st = type { i64, i64, i64, i64, i64, i64, i64, %struct.OSSL_TIME, ptr, ptr, ptr, i8, i8, i8, i8 }
%struct.OSSL_TIME = type { i64 }
%struct.quic_stream_iter_st = type { ptr, ptr, ptr }

; Function Attrs: nounwind uwtable
define internal ptr @list_next(ptr noundef %0, ptr noundef %1, i64 noundef %2) #0 {
  %4 = alloca ptr, align 8
  %5 = alloca ptr, align 8
  %6 = alloca ptr, align 8
  %7 = alloca i64, align 8
  store ptr %0, ptr %5, align 8, !tbaa !54
  store ptr %1, ptr %6, align 8, !tbaa !54
  store i64 %2, ptr %7, align 8, !tbaa !47
  %8 = load ptr, ptr %6, align 8, !tbaa !54
  %9 = getelementptr inbounds nuw %struct.quic_stream_list_node_st, ptr %8, i32 0, i32 1
  %10 = load ptr, ptr %9, align 8, !tbaa !55
  store ptr %10, ptr %6, align 8, !tbaa !54
  %11 = load ptr, ptr %6, align 8, !tbaa !54
  %12 = load ptr, ptr %5, align 8, !tbaa !54
  %13 = icmp eq ptr %11, %12
  br i1 %13, label %14, label %18

14:                                               ; preds = %3
  %15 = load ptr, ptr %6, align 8, !tbaa !54
  %16 = getelementptr inbounds nuw %struct.quic_stream_list_node_st, ptr %15, i32 0, i32 1
  %17 = load ptr, ptr %16, align 8, !tbaa !55
  store ptr %17, ptr %6, align 8, !tbaa !54
  br label %18

18:                                               ; preds = %14, %3
  %19 = load ptr, ptr %6, align 8, !tbaa !54
  %20 = load ptr, ptr %5, align 8, !tbaa !54
  %21 = icmp eq ptr %19, %20
  br i1 %21, label %22, label %23

22:                                               ; preds = %18
  store ptr null, ptr %4, align 8
  br label %28

23:                                               ; preds = %18
  %24 = load ptr, ptr %6, align 8, !tbaa !54
  %25 = load i64, ptr %7, align 8, !tbaa !47
  %26 = sub i64 0, %25
  %27 = getelementptr inbounds i8, ptr %24, i64 %26
  store ptr %27, ptr %4, align 8
  br label %28

28:                                               ; preds = %23, %22
  %29 = load ptr, ptr %4, align 8
  ret ptr %29
}

; Function Attrs: nounwind uwtable
define void @ossl_quic_stream_iter_init(ptr noundef %0, ptr noundef %1, i32 noundef %2) #0 {
  %4 = alloca ptr, align 8
  %5 = alloca ptr, align 8
  %6 = alloca i32, align 4
  store ptr %0, ptr %4, align 8, !tbaa !68
  store ptr %1, ptr %5, align 8, !tbaa !3
  store i32 %2, ptr %6, align 4, !tbaa !11
  %7 = load ptr, ptr %5, align 8, !tbaa !3
  %8 = load ptr, ptr %4, align 8, !tbaa !68
  %9 = getelementptr inbounds nuw %struct.quic_stream_iter_st, ptr %8, i32 0, i32 0
  store ptr %7, ptr %9, align 8, !tbaa !70
  %10 = load ptr, ptr %5, align 8, !tbaa !3
  %11 = getelementptr inbounds nuw %struct.quic_stream_map_st, ptr %10, i32 0, i32 9
  %12 = load ptr, ptr %11, align 8, !tbaa !28
  %13 = load ptr, ptr %4, align 8, !tbaa !68
  %14 = getelementptr inbounds nuw %struct.quic_stream_iter_st, ptr %13, i32 0, i32 1
  store ptr %12, ptr %14, align 8, !tbaa !72
  %15 = load ptr, ptr %4, align 8, !tbaa !68
  %16 = getelementptr inbounds nuw %struct.quic_stream_iter_st, ptr %15, i32 0, i32 2
  store ptr %12, ptr %16, align 8, !tbaa !73
  %17 = load i32, ptr %6, align 4, !tbaa !11
  %18 = icmp ne i32 %17, 0
  br i1 %18, label %19, label %45

19:                                               ; preds = %3
  %20 = load ptr, ptr %4, align 8, !tbaa !68
  %21 = getelementptr inbounds nuw %struct.quic_stream_iter_st, ptr %20, i32 0, i32 2
  %22 = load ptr, ptr %21, align 8, !tbaa !73
  %23 = icmp ne ptr %22, null
  br i1 %23, label %24, label %45

24:                                               ; preds = %19
  %25 = load ptr, ptr %5, align 8, !tbaa !3
  %26 = getelementptr inbounds nuw %struct.quic_stream_map_st, ptr %25, i32 0, i32 5
  %27 = load i64, ptr %26, align 8, !tbaa !27
  %28 = add i64 %27, 1
  store i64 %28, ptr %26, align 8, !tbaa !27
  %29 = load ptr, ptr %5, align 8, !tbaa !3
  %30 = getelementptr inbounds nuw %struct.quic_stream_map_st, ptr %29, i32 0, i32 4
  %31 = load i64, ptr %30, align 8, !tbaa !26
  %32 = icmp uge i64 %28, %31
  br i1 %32, label %33, label %45

33:                                               ; preds = %24
  %34 = load ptr, ptr %5, align 8, !tbaa !3
  %35 = getelementptr inbounds nuw %struct.quic_stream_map_st, ptr %34, i32 0, i32 5
  store i64 0, ptr %35, align 8, !tbaa !27
  %36 = load ptr, ptr %5, align 8, !tbaa !3
  %37 = getelementptr inbounds nuw %struct.quic_stream_map_st, ptr %36, i32 0, i32 1
  %38 = load ptr, ptr %5, align 8, !tbaa !3
  %39 = getelementptr inbounds nuw %struct.quic_stream_map_st, ptr %38, i32 0, i32 9
  %40 = load ptr, ptr %39, align 8, !tbaa !28
  %41 = getelementptr inbounds nuw %struct.quic_stream_st, ptr %40, i32 0, i32 0
  %42 = call ptr @list_next(ptr noundef %37, ptr noundef %41, i64 noundef 0)
  %43 = load ptr, ptr %5, align 8, !tbaa !3
  %44 = getelementptr inbounds nuw %struct.quic_stream_map_st, ptr %43, i32 0, i32 9
  store ptr %42, ptr %44, align 8, !tbaa !28
  br label %45

45:                                               ; preds = %33, %24, %19, %3
  ret void
}