; Function Attrs: mustprogress nofree norecurse nosync nounwind willreturn memory(read, argmem: readwrite, inaccessiblemem: none) uwtable
define void @ossl_quic_stream_iter_init(ptr noundef writeonly captures(none) initializes((0, 24)) %0, ptr noundef %1, i32 noundef %2) local_unnamed_addr #9 {
  store ptr %1, ptr %0, align 8, !tbaa !51
  %4 = getelementptr inbounds nuw i8, ptr %1, i64 96
  %5 = load ptr, ptr %4, align 8, !tbaa !46
  %6 = getelementptr inbounds nuw i8, ptr %0, i64 8
  store ptr %5, ptr %6, align 8, !tbaa !54
  %7 = getelementptr inbounds nuw i8, ptr %0, i64 16
  store ptr %5, ptr %7, align 8, !tbaa !55
  %.not = icmp eq i32 %2, 0
  %.not12 = icmp eq ptr %5, null
  %or.cond = select i1 %.not, i1 true, i1 %.not12
  br i1 %or.cond, label %22, label %8

8:                                                ; preds = %3
  %9 = getelementptr inbounds nuw i8, ptr %1, i64 64
  %10 = load i64, ptr %9, align 8, !tbaa !43
  %11 = add i64 %10, 1
  store i64 %11, ptr %9, align 8, !tbaa !43
  %12 = getelementptr inbounds nuw i8, ptr %1, i64 56
  %13 = load i64, ptr %12, align 8, !tbaa !21
  %.not13 = icmp ult i64 %11, %13
  br i1 %.not13, label %22, label %14

14:                                               ; preds = %8
  store i64 0, ptr %9, align 8, !tbaa !43
  %15 = getelementptr inbounds nuw i8, ptr %1, i64 8
  %16 = getelementptr i8, ptr %5, i64 8
  %.val = load ptr, ptr %16, align 8, !tbaa !38
  %17 = icmp eq ptr %.val, %15
  br i1 %17, label %18, label %list_next.exit

18:                                               ; preds = %14
  %19 = getelementptr inbounds nuw i8, ptr %.val, i64 8
  %20 = load ptr, ptr %19, align 8, !tbaa !38
  br label %list_next.exit

list_next.exit:                                   ; preds = %14, %18
  %.08.i = phi ptr [ %20, %18 ], [ %.val, %14 ]
  %21 = icmp eq ptr %.08.i, %15
  %.0.i = select i1 %21, ptr null, ptr %.08.i
  store ptr %.0.i, ptr %4, align 8, !tbaa !46
  br label %22

22:                                               ; preds = %list_next.exit, %8, %3
  ret void
}